target datalayout = "e-m:e-p270:32:32-p271:32:32-p272:64:64-i64:64-i128:128-f80:128-n8:16:32:64-S128"
target triple = "x86_64-pc-linux-gnu"

%struct.strbuf = type { i64, i64, ptr }

@__const.strbuf_init.blank = private unnamed_addr constant %struct.strbuf { i64 0, i64 0, ptr @strbuf_slopbuf }, align 8
@.str = private unnamed_addr constant [36 x i8] c"you want to use way too much memory\00", align 1
@.str.27 = private unnamed_addr constant [27 x i8] c"size_t overflow: %lu * %lu\00", align 1

; Function Attrs: nounwind uwtable
define dso_local void @strbuf_grow(ptr noundef %0, i64 noundef %1) #0 {
  %3 = alloca ptr, align 8
  %4 = alloca i64, align 8
  %5 = alloca i32, align 4
  store ptr %0, ptr %3, align 8, !tbaa !18
  store i64 %1, ptr %4, align 8, !tbaa !12
  call void @llvm.lifetime.start.p0(i64 4, ptr %5) #11
  %6 = load ptr, ptr %3, align 8, !tbaa !18
  %7 = getelementptr inbounds nuw %struct.strbuf, ptr %6, i32 0, i32 0
  %8 = load i64, ptr %7, align 8, !tbaa !20
  %9 = icmp ne i64 %8, 0
  %10 = xor i1 %9, true
  %11 = zext i1 %10 to i32
  store i32 %11, ptr %5, align 4, !tbaa !10
  %12 = load i64, ptr %4, align 8, !tbaa !12
  %13 = sub i64 -1, %12
  %14 = icmp ugt i64 1, %13
  br i1 %14, label %23, label %15

15:                                               ; preds = %2
  %16 = load i64, ptr %4, align 8, !tbaa !12
  %17 = add i64 %16, 1
  %18 = load ptr, ptr %3, align 8, !tbaa !18
  %19 = getelementptr inbounds nuw %struct.strbuf, ptr %18, i32 0, i32 1
  %20 = load i64, ptr %19, align 8, !tbaa !22
  %21 = sub i64 -1, %20
  %22 = icmp ugt i64 %17, %21
  br i1 %22, label %23, label %24

23:                                               ; preds = %15, %2
  call void (ptr, ...) @die(ptr noundef @.str) #12
  unreachable

24:                                               ; preds = %15
  %25 = load i32, ptr %5, align 4, !tbaa !10
  %26 = icmp ne i32 %25, 0
  br i1 %26, label %27, label %30

27:                                               ; preds = %24
  %28 = load ptr, ptr %3, align 8, !tbaa !18
  %29 = getelementptr inbounds nuw %struct.strbuf, ptr %28, i32 0, i32 2
  store ptr null, ptr %29, align 8, !tbaa !23
  br label %30

30:                                               ; preds = %27, %24
  br label %31

31:                                               ; preds = %30
  %32 = load ptr, ptr %3, align 8, !tbaa !18
  %33 = getelementptr inbounds nuw %struct.strbuf, ptr %32, i32 0, i32 1
  %34 = load i64, ptr %33, align 8, !tbaa !22
  %35 = load i64, ptr %4, align 8, !tbaa !12
  %36 = add i64 %34, %35
  %37 = add i64 %36, 1
  %38 = load ptr, ptr %3, align 8, !tbaa !18
  %39 = getelementptr inbounds nuw %struct.strbuf, ptr %38, i32 0, i32 0
  %40 = load i64, ptr %39, align 8, !tbaa !20
  %41 = icmp ugt i64 %37, %40
  br i1 %41, label %42, label %85

42:                                               ; preds = %31
  %43 = load ptr, ptr %3, align 8, !tbaa !18
  %44 = getelementptr inbounds nuw %struct.strbuf, ptr %43, i32 0, i32 0
  %45 = load i64, ptr %44, align 8, !tbaa !20
  %46 = add i64 %45, 16
  %47 = mul i64 %46, 3
  %48 = udiv i64 %47, 2
  %49 = load ptr, ptr %3, align 8, !tbaa !18
  %50 = getelementptr inbounds nuw %struct.strbuf, ptr %49, i32 0, i32 1
  %51 = load i64, ptr %50, align 8, !tbaa !22
  %52 = load i64, ptr %4, align 8, !tbaa !12
  %53 = add i64 %51, %52
  %54 = add i64 %53, 1
  %55 = icmp ult i64 %48, %54
  br i1 %55, label %56, label %65

56:                                               ; preds = %42
  %57 = load ptr, ptr %3, align 8, !tbaa !18
  %58 = getelementptr inbounds nuw %struct.strbuf, ptr %57, i32 0, i32 1
  %59 = load i64, ptr %58, align 8, !tbaa !22
  %60 = load i64, ptr %4, align 8, !tbaa !12
  %61 = add i64 %59, %60
  %62 = add i64 %61, 1
  %63 = load ptr, ptr %3, align 8, !tbaa !18
  %64 = getelementptr inbounds nuw %struct.strbuf, ptr %63, i32 0, i32 0
  store i64 %62, ptr %64, align 8, !tbaa !20
  br label %74

65:                                               ; preds = %42
  %66 = load ptr, ptr %3, align 8, !tbaa !18
  %67 = getelementptr inbounds nuw %struct.strbuf, ptr %66, i32 0, i32 0
  %68 = load i64, ptr %67, align 8, !tbaa !20
  %69 = add i64 %68, 16
  %70 = mul i64 %69, 3
  %71 = udiv i64 %70, 2
  %72 = load ptr, ptr %3, align 8, !tbaa !18
  %73 = getelementptr inbounds nuw %struct.strbuf, ptr %72, i32 0, i32 0
  store i64 %71, ptr %73, align 8, !tbaa !20
  br label %74

74:                                               ; preds = %65, %56
  %75 = load ptr, ptr %3, align 8, !tbaa !18
  %76 = getelementptr inbounds nuw %struct.strbuf, ptr %75, i32 0, i32 2
  %77 = load ptr, ptr %76, align 8, !tbaa !23
  %78 = load ptr, ptr %3, align 8, !tbaa !18
  %79 = getelementptr inbounds nuw %struct.strbuf, ptr %78, i32 0, i32 0
  %80 = load i64, ptr %79, align 8, !tbaa !20
  %81 = call i64 @st_mult(i64 noundef 1, i64 noundef %80)
  %82 = call ptr @xrealloc(ptr noundef %77, i64 noundef %81)
  %83 = load ptr, ptr %3, align 8, !tbaa !18
  %84 = getelementptr inbounds nuw %struct.strbuf, ptr %83, i32 0, i32 2
  store ptr %82, ptr %84, align 8, !tbaa !23
  br label %85

85:                                               ; preds = %74, %31
  br label %86

86:                                               ; preds = %85
  br label %87

87:                                               ; preds = %86
  %88 = load i32, ptr %5, align 4, !tbaa !10
  %89 = icmp ne i32 %88, 0
  br i1 %89, label %90, label %95

90:                                               ; preds = %87
  %91 = load ptr, ptr %3, align 8, !tbaa !18
  %92 = getelementptr inbounds nuw %struct.strbuf, ptr %91, i32 0, i32 2
  %93 = load ptr, ptr %92, align 8, !tbaa !23
  %94 = getelementptr inbounds i8, ptr %93, i64 0
  store i8 0, ptr %94, align 1, !tbaa !9
  br label %95

95:                                               ; preds = %90, %87
  call void @llvm.lifetime.end.p0(i64 4, ptr %5) #11
  ret void
}

; Function Attrs: inlinehint nounwind uwtable
define internal i64 @st_mult(i64 noundef %0, i64 noundef %1) #1 {
  %3 = alloca i64, align 8
  %4 = alloca i64, align 8
  store i64 %0, ptr %3, align 8, !tbaa !12
  store i64 %1, ptr %4, align 8, !tbaa !12
  %5 = load i64, ptr %3, align 8, !tbaa !12
  %6 = icmp ne i64 %5, 0
  br i1 %6, label %7, label %15

7:                                                ; preds = %2
  %8 = load i64, ptr %4, align 8, !tbaa !12
  %9 = load i64, ptr %3, align 8, !tbaa !12
  %10 = udiv i64 -1, %9
  %11 = icmp ugt i64 %8, %10
  br i1 %11, label %12, label %15

12:                                               ; preds = %7
  %13 = load i64, ptr %3, align 8, !tbaa !12
  %14 = load i64, ptr %4, align 8, !tbaa !12
  call void (ptr, ...) @die(ptr noundef @.str.27, i64 noundef %13, i64 noundef %14) #12
  unreachable

15:                                               ; preds = %7, %2
  %16 = load i64, ptr %3, align 8, !tbaa !12
  %17 = load i64, ptr %4, align 8, !tbaa !12
  %18 = mul i64 %16, %17
  ret i64 %18
}

; Function Attrs: nounwind uwtable
define dso_local void @strbuf_init(ptr noundef %0, i64 noundef %1) #0 {
  %3 = alloca ptr, align 8
  %4 = alloca i64, align 8
  %5 = alloca %struct.strbuf, align 8
  store ptr %0, ptr %3, align 8, !tbaa !18
  store i64 %1, ptr %4, align 8, !tbaa !12
  call void @llvm.lifetime.start.p0(i64 24, ptr %5) #11
  call void @llvm.memcpy.p0.p0.i64(ptr align 8 %5, ptr align 8 @__const.strbuf_init.blank, i64 24, i1 false)
  %6 = load ptr, ptr %3, align 8, !tbaa !18
  call void @llvm.memcpy.p0.p0.i64(ptr align 8 %6, ptr align 8 %5, i64 24, i1 false)
  %7 = load i64, ptr %4, align 8, !tbaa !12
  %8 = icmp ne i64 %7, 0
  br i1 %8, label %9, label %12

9:                                                ; preds = %2
  %10 = load ptr, ptr %3, align 8, !tbaa !18
  %11 = load i64, ptr %4, align 8, !tbaa !12
  call void @strbuf_grow(ptr noundef %10, i64 noundef %11)
  br label %12

12:                                               ; preds = %9, %2
  call void @llvm.lifetime.end.p0(i64 24, ptr %5) #11
  ret void
}

; Function Attrs: nounwind uwtable
define dso_local ptr @strbuf_split_buf(ptr noundef %0, i64 noundef %1, i32 noundef %2, i32 noundef %3) #0 {
  %5 = alloca ptr, align 8
  %6 = alloca i64, align 8
  %7 = alloca i32, align 4
  %8 = alloca i32, align 4
  %9 = alloca ptr, align 8
  %10 = alloca i64, align 8
  %11 = alloca i64, align 8
  %12 = alloca ptr, align 8
  %13 = alloca i32, align 4
  %14 = alloca ptr, align 8
  store ptr %0, ptr %5, align 8, !tbaa !4
  store i64 %1, ptr %6, align 8, !tbaa !12
  store i32 %2, ptr %7, align 4, !tbaa !10
  store i32 %3, ptr %8, align 4, !tbaa !10
  call void @llvm.lifetime.start.p0(i64 8, ptr %9) #11
  store ptr null, ptr %9, align 8, !tbaa !31
  call void @llvm.lifetime.start.p0(i64 8, ptr %10) #11
  store i64 0, ptr %10, align 8, !tbaa !12
  call void @llvm.lifetime.start.p0(i64 8, ptr %11) #11
  store i64 0, ptr %11, align 8, !tbaa !12
  call void @llvm.lifetime.start.p0(i64 8, ptr %12) #11
  br label %15

15:                                               ; preds = %82, %4
  %16 = load i64, ptr %6, align 8, !tbaa !12
  %17 = icmp ne i64 %16, 0
  br i1 %17, label %18, label %96

18:                                               ; preds = %15
  call void @llvm.lifetime.start.p0(i64 4, ptr %13) #11
  %19 = load i64, ptr %6, align 8, !tbaa !12
  %20 = trunc i64 %19 to i32
  store i32 %20, ptr %13, align 4, !tbaa !10
  %21 = load i32, ptr %8, align 4, !tbaa !10
  %22 = icmp sle i32 %21, 0
  br i1 %22, label %29, label %23

23:                                               ; preds = %18
  %24 = load i64, ptr %10, align 8, !tbaa !12
  %25 = add i64 %24, 1
  %26 = load i32, ptr %8, align 4, !tbaa !10
  %27 = sext i32 %26 to i64
  %28 = icmp ult i64 %25, %27
  br i1 %28, label %29, label %45

29:                                               ; preds = %23, %18
  call void @llvm.lifetime.start.p0(i64 8, ptr %14) #11
  %30 = load ptr, ptr %5, align 8, !tbaa !4
  %31 = load i32, ptr %7, align 4, !tbaa !10
  %32 = load i64, ptr %6, align 8, !tbaa !12
  %33 = call ptr @memchr(ptr noundef %30, i32 noundef %31, i64 noundef %32) #13
  store ptr %33, ptr %14, align 8, !tbaa !4
  %34 = load ptr, ptr %14, align 8, !tbaa !4
  %35 = icmp ne ptr %34, null
  br i1 %35, label %36, label %44

36:                                               ; preds = %29
  %37 = load ptr, ptr %14, align 8, !tbaa !4
  %38 = load ptr, ptr %5, align 8, !tbaa !4
  %39 = ptrtoint ptr %37 to i64
  %40 = ptrtoint ptr %38 to i64
  %41 = sub i64 %39, %40
  %42 = add nsw i64 %41, 1
  %43 = trunc i64 %42 to i32
  store i32 %43, ptr %13, align 4, !tbaa !10
  br label %44

44:                                               ; preds = %36, %29
  call void @llvm.lifetime.end.p0(i64 8, ptr %14) #11
  br label %45

45:                                               ; preds = %44, %23
  %46 = call ptr @xmalloc(i64 noundef 24)
  store ptr %46, ptr %12, align 8, !tbaa !18
  %47 = load ptr, ptr %12, align 8, !tbaa !18
  %48 = load i32, ptr %13, align 4, !tbaa !10
  %49 = sext i32 %48 to i64
  call void @strbuf_init(ptr noundef %47, i64 noundef %49)
  %50 = load ptr, ptr %12, align 8, !tbaa !18
  %51 = load ptr, ptr %5, align 8, !tbaa !4
  %52 = load i32, ptr %13, align 4, !tbaa !10
  %53 = sext i32 %52 to i64
  call void @strbuf_add(ptr noundef %50, ptr noundef %51, i64 noundef %53)
  br label %54

54:                                               ; preds = %45
  %55 = load i64, ptr %10, align 8, !tbaa !12
  %56 = add i64 %55, 2
  %57 = load i64, ptr %11, align 8, !tbaa !12
  %58 = icmp ugt i64 %56, %57
  br i1 %58, label %59, label %80

59:                                               ; preds = %54
  %60 = load i64, ptr %11, align 8, !tbaa !12
  %61 = add i64 %60, 16
  %62 = mul i64 %61, 3
  %63 = udiv i64 %62, 2
  %64 = load i64, ptr %10, align 8, !tbaa !12
  %65 = add i64 %64, 2
  %66 = icmp ult i64 %63, %65
  br i1 %66, label %67, label %70

67:                                               ; preds = %59
  %68 = load i64, ptr %10, align 8, !tbaa !12
  %69 = add i64 %68, 2
  store i64 %69, ptr %11, align 8, !tbaa !12
  br label %75

70:                                               ; preds = %59
  %71 = load i64, ptr %11, align 8, !tbaa !12
  %72 = add i64 %71, 16
  %73 = mul i64 %72, 3
  %74 = udiv i64 %73, 2
  store i64 %74, ptr %11, align 8, !tbaa !12
  br label %75

75:                                               ; preds = %70, %67
  %76 = load ptr, ptr %9, align 8, !tbaa !31
  %77 = load i64, ptr %11, align 8, !tbaa !12
  %78 = call i64 @st_mult(i64 noundef 8, i64 noundef %77)
  %79 = call ptr @xrealloc(ptr noundef %76, i64 noundef %78)
  store ptr %79, ptr %9, align 8, !tbaa !31
  br label %80

80:                                               ; preds = %75, %54
  br label %81

81:                                               ; preds = %80
  br label %82

82:                                               ; preds = %81
  %83 = load ptr, ptr %12, align 8, !tbaa !18
  %84 = load ptr, ptr %9, align 8, !tbaa !31
  %85 = load i64, ptr %10, align 8, !tbaa !12
  %86 = add i64 %85, 1
  store i64 %86, ptr %10, align 8, !tbaa !12
  %87 = getelementptr inbounds nuw ptr, ptr %84, i64 %85
  store ptr %83, ptr %87, align 8, !tbaa !18
  %88 = load i32, ptr %13, align 4, !tbaa !10
  %89 = load ptr, ptr %5, align 8, !tbaa !4
  %90 = sext i32 %88 to i64
  %91 = getelementptr inbounds i8, ptr %89, i64 %90
  store ptr %91, ptr %5, align 8, !tbaa !4
  %92 = load i32, ptr %13, align 4, !tbaa !10
  %93 = sext i32 %92 to i64
  %94 = load i64, ptr %6, align 8, !tbaa !12
  %95 = sub i64 %94, %93
  store i64 %95, ptr %6, align 8, !tbaa !12
  call void @llvm.lifetime.end.p0(i64 4, ptr %13) #11
  br label %15, !llvm.loop !33

96:                                               ; preds = %15
  br label %97

97:                                               ; preds = %96
  %98 = load i64, ptr %10, align 8, !tbaa !12
  %99 = add i64 %98, 1
  %100 = load i64, ptr %11, align 8, !tbaa !12
  %101 = icmp ugt i64 %99, %100
  br i1 %101, label %102, label %123

102:                                              ; preds = %97
  %103 = load i64, ptr %11, align 8, !tbaa !12
  %104 = add i64 %103, 16
  %105 = mul i64 %104, 3
  %106 = udiv i64 %105, 2
  %107 = load i64, ptr %10, align 8, !tbaa !12
  %108 = add i64 %107, 1
  %109 = icmp ult i64 %106, %108
  br i1 %109, label %110, label %113

110:                                              ; preds = %102
  %111 = load i64, ptr %10, align 8, !tbaa !12
  %112 = add i64 %111, 1
  store i64 %112, ptr %11, align 8, !tbaa !12
  br label %118

113:                                              ; preds = %102
  %114 = load i64, ptr %11, align 8, !tbaa !12
  %115 = add i64 %114, 16
  %116 = mul i64 %115, 3
  %117 = udiv i64 %116, 2
  store i64 %117, ptr %11, align 8, !tbaa !12
  br label %118

118:                                              ; preds = %113, %110
  %119 = load ptr, ptr %9, align 8, !tbaa !31
  %120 = load i64, ptr %11, align 8, !tbaa !12
  %121 = call i64 @st_mult(i64 noundef 8, i64 noundef %120)
  %122 = call ptr @xrealloc(ptr noundef %119, i64 noundef %121)
  store ptr %122, ptr %9, align 8, !tbaa !31
  br label %123

123:                                              ; preds = %118, %97
  br label %124

124:                                              ; preds = %123
  br label %125

125:                                              ; preds = %124
  %126 = load ptr, ptr %9, align 8, !tbaa !31
  %127 = load i64, ptr %10, align 8, !tbaa !12
  %128 = getelementptr inbounds nuw ptr, ptr %126, i64 %127
  store ptr null, ptr %128, align 8, !tbaa !18
  %129 = load ptr, ptr %9, align 8, !tbaa !31
  call void @llvm.lifetime.end.p0(i64 8, ptr %12) #11
  call void @llvm.lifetime.end.p0(i64 8, ptr %11) #11
  call void @llvm.lifetime.end.p0(i64 8, ptr %10) #11
  call void @llvm.lifetime.end.p0(i64 8, ptr %9) #11
  ret ptr %129
}