; Function Attrs: nounwind uwtable
define dso_local ptr @strbuf_split_buf(ptr noundef %0, i64 noundef %1, i32 noundef %2, i32 noundef %3) local_unnamed_addr #3 {
  %.not68 = icmp eq i64 %1, 0
  br i1 %.not68, label %._crit_edge, label %.lr.ph

.lr.ph:                                           ; preds = %4
  %5 = icmp slt i32 %3, 1
  %6 = zext nneg i32 %3 to i64
  br label %7

7:                                                ; preds = %.lr.ph, %32
  %.073 = phi ptr [ %0, %.lr.ph ], [ %34, %32 ]
  %.04272 = phi i64 [ %1, %.lr.ph ], [ %35, %32 ]
  %.04371 = phi i64 [ 0, %.lr.ph ], [ %.2, %32 ]
  %.04570 = phi i64 [ 0, %.lr.ph ], [ %8, %32 ]
  %.04669 = phi ptr [ null, %.lr.ph ], [ %.147, %32 ]
  %8 = add i64 %.04570, 1
  %9 = icmp ult i64 %8, %6
  %or.cond = select i1 %5, i1 true, i1 %9
  br i1 %or.cond, label %10, label %15

10:                                               ; preds = %7
  %11 = tail call ptr @memchr(ptr noundef %.073, i32 noundef %2, i64 noundef %.04272) #26
  %.not55 = icmp eq ptr %11, null
  %12 = ptrtoint ptr %11 to i64
  %13 = ptrtoint ptr %.073 to i64
  %reass.sub = sub i64 %12, %13
  %14 = add i64 %reass.sub, 1
  %.1 = select i1 %.not55, i64 %.04272, i64 %14
  br label %15

15:                                               ; preds = %7, %10
  %.041 = phi i64 [ %.1, %10 ], [ %.04272, %7 ]
  %16 = tail call ptr @xmalloc(i64 noundef 24) #25
  %sext = shl i64 %.041, 32
  %17 = ashr exact i64 %sext, 32
  tail call void @llvm.memcpy.p0.p0.i64(ptr noundef nonnull align 8 dereferenceable(24) %16, ptr noundef nonnull align 8 dereferenceable(24) @__const.strbuf_addftime.munged_fmt, i64 24, i1 false)
  switch i64 %17, label %19 [
    i64 0, label %strbuf_init.exit
    i64 -1, label %18
  ]

18:                                               ; preds = %15
  tail call void (ptr, ...) @die(ptr noundef nonnull @.str) #24
  unreachable

19:                                               ; preds = %15
  %20 = getelementptr inbounds nuw i8, ptr %16, i64 16
  store ptr null, ptr %20, align 8, !tbaa !12
  %21 = tail call i64 @llvm.umax.i64(i64 %17, i64 23)
  %..i.i = add nuw i64 %21, 1
  store i64 %..i.i, ptr %16, align 8, !tbaa !15
  %22 = tail call ptr @xrealloc(ptr noundef null, i64 noundef %..i.i) #25
  store ptr %22, ptr %20, align 8, !tbaa !12
  store i8 0, ptr %22, align 1, !tbaa !4
  br label %strbuf_init.exit

strbuf_init.exit:                                 ; preds = %15, %19
  tail call void @strbuf_add(ptr noundef nonnull %16, ptr noundef %.073, i64 noundef %17)
  %23 = add i64 %.04570, 2
  %24 = icmp ugt i64 %23, %.04371
  br i1 %24, label %25, label %32

25:                                               ; preds = %strbuf_init.exit
  %26 = mul i64 %.04371, 3
  %27 = add i64 %26, 48
  %28 = lshr i64 %27, 1
  %. = tail call i64 @llvm.umax.i64(i64 %28, i64 %23)
  %mul.ov.i = icmp ugt i64 %., 2305843009213693951
  br i1 %mul.ov.i, label %29, label %st_mult.exit

29:                                               ; preds = %25
  tail call void (ptr, ...) @die(ptr noundef nonnull @.str.27, i64 noundef 8, i64 noundef %.) #24
  unreachable

st_mult.exit:                                     ; preds = %25
  %30 = shl nuw i64 %., 3
  %31 = tail call ptr @xrealloc(ptr noundef %.04669, i64 noundef %30) #25
  br label %32

32:                                               ; preds = %st_mult.exit, %strbuf_init.exit
  %.147 = phi ptr [ %31, %st_mult.exit ], [ %.04669, %strbuf_init.exit ]
  %.2 = phi i64 [ %., %st_mult.exit ], [ %.04371, %strbuf_init.exit ]
  %33 = getelementptr inbounds nuw ptr, ptr %.147, i64 %.04570
  store ptr %16, ptr %33, align 8, !tbaa !22
  %34 = getelementptr inbounds i8, ptr %.073, i64 %17
  %35 = sub i64 %.04272, %17
  %.not = icmp eq i64 %35, 0
  br i1 %.not, label %._crit_edge, label %7, !llvm.loop !24

._crit_edge:                                      ; preds = %32, %4
  %.046.lcssa = phi ptr [ null, %4 ], [ %.147, %32 ]
  %.045.lcssa = phi i64 [ 0, %4 ], [ %8, %32 ]
  %.043.lcssa = phi i64 [ 0, %4 ], [ %.2, %32 ]
  %36 = add i64 %.045.lcssa, 1
  %37 = icmp ugt i64 %36, %.043.lcssa
  br i1 %37, label %38, label %45

38:                                               ; preds = %._crit_edge
  %39 = mul nuw i64 %.043.lcssa, 3
  %40 = add nuw i64 %39, 48
  %41 = lshr i64 %40, 1
  %.58 = tail call i64 @llvm.umax.i64(i64 %41, i64 %36)
  %mul.ov.i60 = icmp ugt i64 %.58, 2305843009213693951
  br i1 %mul.ov.i60, label %42, label %st_mult.exit61

42:                                               ; preds = %38
  tail call void (ptr, ...) @die(ptr noundef nonnull @.str.27, i64 noundef 8, i64 noundef %.58) #24
  unreachable

st_mult.exit61:                                   ; preds = %38
  %43 = shl nuw i64 %.58, 3
  %44 = tail call ptr @xrealloc(ptr noundef %.046.lcssa, i64 noundef %43) #25
  br label %45

45:                                               ; preds = %st_mult.exit61, %._crit_edge
  %.248 = phi ptr [ %44, %st_mult.exit61 ], [ %.046.lcssa, %._crit_edge ]
  %46 = getelementptr inbounds nuw ptr, ptr %.248, i64 %.045.lcssa
  store ptr null, ptr %46, align 8, !tbaa !22
  ret ptr %.248
}